target datalayout = "e-m:e-p270:32:32-p271:32:32-p272:64:64-i64:64-i128:128-f80:128-n8:16:32:64-S128"
target triple = "x86_64-pc-linux-gnu"

%struct.ltlNode_t = type { i32, ptr, ptr, ptr, ptr }
%struct.Vec_Ptr_t_ = type { i32, i32, ptr }

@.str.16 = private unnamed_addr constant [33 x i8] c"\0AINVALID situation: aborting...\0A\00", align 1

; Function Attrs: inlinehint nounwind uwtable
define internal void @Vec_PtrGrow(ptr noundef %0, i32 noundef %1) #3 {
  %3 = alloca ptr, align 8
  %4 = alloca i32, align 4
  store ptr %0, ptr %3, align 8, !tbaa !48
  store i32 %1, ptr %4, align 4, !tbaa !3
  %5 = load ptr, ptr %3, align 8, !tbaa !48
  %6 = getelementptr inbounds nuw %struct.Vec_Ptr_t_, ptr %5, i32 0, i32 0
  %7 = load i32, ptr %6, align 8, !tbaa !52
  %8 = load i32, ptr %4, align 4, !tbaa !3
  %9 = icmp sge i32 %7, %8
  br i1 %9, label %10, label %11

10:                                               ; preds = %2
  br label %36

11:                                               ; preds = %2
  %12 = load ptr, ptr %3, align 8, !tbaa !48
  %13 = getelementptr inbounds nuw %struct.Vec_Ptr_t_, ptr %12, i32 0, i32 2
  %14 = load ptr, ptr %13, align 8, !tbaa !49
  %15 = icmp ne ptr %14, null
  br i1 %15, label %16, label %24

16:                                               ; preds = %11
  %17 = load ptr, ptr %3, align 8, !tbaa !48
  %18 = getelementptr inbounds nuw %struct.Vec_Ptr_t_, ptr %17, i32 0, i32 2
  %19 = load ptr, ptr %18, align 8, !tbaa !49
  %20 = load i32, ptr %4, align 4, !tbaa !3
  %21 = sext i32 %20 to i64
  %22 = mul i64 8, %21
  %23 = call ptr @realloc(ptr noundef %19, i64 noundef %22) #13
  br label %29

24:                                               ; preds = %11
  %25 = load i32, ptr %4, align 4, !tbaa !3
  %26 = sext i32 %25 to i64
  %27 = mul i64 8, %26
  %28 = call noalias ptr @malloc(i64 noundef %27) #10
  br label %29

29:                                               ; preds = %24, %16
  %30 = phi ptr [ %23, %16 ], [ %28, %24 ]
  %31 = load ptr, ptr %3, align 8, !tbaa !48
  %32 = getelementptr inbounds nuw %struct.Vec_Ptr_t_, ptr %31, i32 0, i32 2
  store ptr %30, ptr %32, align 8, !tbaa !49
  %33 = load i32, ptr %4, align 4, !tbaa !3
  %34 = load ptr, ptr %3, align 8, !tbaa !48
  %35 = getelementptr inbounds nuw %struct.Vec_Ptr_t_, ptr %34, i32 0, i32 0
  store i32 %33, ptr %35, align 8, !tbaa !52
  br label %36

36:                                               ; preds = %29, %10
  ret void
}

; Function Attrs: inlinehint nounwind uwtable
define internal void @Vec_PtrPush(ptr noundef %0, ptr noundef %1) #3 {
  %3 = alloca ptr, align 8
  %4 = alloca ptr, align 8
  store ptr %0, ptr %3, align 8, !tbaa !48
  store ptr %1, ptr %4, align 8, !tbaa !53
  %5 = load ptr, ptr %3, align 8, !tbaa !48
  %6 = getelementptr inbounds nuw %struct.Vec_Ptr_t_, ptr %5, i32 0, i32 1
  %7 = load i32, ptr %6, align 4, !tbaa !51
  %8 = load ptr, ptr %3, align 8, !tbaa !48
  %9 = getelementptr inbounds nuw %struct.Vec_Ptr_t_, ptr %8, i32 0, i32 0
  %10 = load i32, ptr %9, align 8, !tbaa !52
  %11 = icmp eq i32 %7, %10
  br i1 %11, label %12, label %26

12:                                               ; preds = %2
  %13 = load ptr, ptr %3, align 8, !tbaa !48
  %14 = getelementptr inbounds nuw %struct.Vec_Ptr_t_, ptr %13, i32 0, i32 0
  %15 = load i32, ptr %14, align 8, !tbaa !52
  %16 = icmp slt i32 %15, 16
  br i1 %16, label %17, label %19

17:                                               ; preds = %12
  %18 = load ptr, ptr %3, align 8, !tbaa !48
  call void @Vec_PtrGrow(ptr noundef %18, i32 noundef 16)
  br label %25

19:                                               ; preds = %12
  %20 = load ptr, ptr %3, align 8, !tbaa !48
  %21 = load ptr, ptr %3, align 8, !tbaa !48
  %22 = getelementptr inbounds nuw %struct.Vec_Ptr_t_, ptr %21, i32 0, i32 0
  %23 = load i32, ptr %22, align 8, !tbaa !52
  %24 = mul nsw i32 2, %23
  call void @Vec_PtrGrow(ptr noundef %20, i32 noundef %24)
  br label %25

25:                                               ; preds = %19, %17
  br label %26

26:                                               ; preds = %25, %2
  %27 = load ptr, ptr %4, align 8, !tbaa !53
  %28 = load ptr, ptr %3, align 8, !tbaa !48
  %29 = getelementptr inbounds nuw %struct.Vec_Ptr_t_, ptr %28, i32 0, i32 2
  %30 = load ptr, ptr %29, align 8, !tbaa !49
  %31 = load ptr, ptr %3, align 8, !tbaa !48
  %32 = getelementptr inbounds nuw %struct.Vec_Ptr_t_, ptr %31, i32 0, i32 1
  %33 = load i32, ptr %32, align 4, !tbaa !51
  %34 = add nsw i32 %33, 1
  store i32 %34, ptr %32, align 4, !tbaa !51
  %35 = sext i32 %33 to i64
  %36 = getelementptr inbounds ptr, ptr %30, i64 %35
  store ptr %27, ptr %36, align 8, !tbaa !53
  ret void
}

; Function Attrs: inlinehint nounwind uwtable
define internal i32 @Vec_PtrFind(ptr noundef %0, ptr noundef %1) #3 {
  %3 = alloca i32, align 4
  %4 = alloca ptr, align 8
  %5 = alloca ptr, align 8
  %6 = alloca i32, align 4
  %7 = alloca i32, align 4
  store ptr %0, ptr %4, align 8, !tbaa !48
  store ptr %1, ptr %5, align 8, !tbaa !53
  call void @llvm.lifetime.start.p0(i64 4, ptr %6) #9
  store i32 0, ptr %6, align 4, !tbaa !3
  br label %8

8:                                                ; preds = %27, %2
  %9 = load i32, ptr %6, align 4, !tbaa !3
  %10 = load ptr, ptr %4, align 8, !tbaa !48
  %11 = getelementptr inbounds nuw %struct.Vec_Ptr_t_, ptr %10, i32 0, i32 1
  %12 = load i32, ptr %11, align 4, !tbaa !51
  %13 = icmp slt i32 %9, %12
  br i1 %13, label %14, label %30

14:                                               ; preds = %8
  %15 = load ptr, ptr %4, align 8, !tbaa !48
  %16 = getelementptr inbounds nuw %struct.Vec_Ptr_t_, ptr %15, i32 0, i32 2
  %17 = load ptr, ptr %16, align 8, !tbaa !49
  %18 = load i32, ptr %6, align 4, !tbaa !3
  %19 = sext i32 %18 to i64
  %20 = getelementptr inbounds ptr, ptr %17, i64 %19
  %21 = load ptr, ptr %20, align 8, !tbaa !53
  %22 = load ptr, ptr %5, align 8, !tbaa !53
  %23 = icmp eq ptr %21, %22
  br i1 %23, label %24, label %26

24:                                               ; preds = %14
  %25 = load i32, ptr %6, align 4, !tbaa !3
  store i32 %25, ptr %3, align 4
  store i32 1, ptr %7, align 4
  br label %31

26:                                               ; preds = %14
  br label %27

27:                                               ; preds = %26
  %28 = load i32, ptr %6, align 4, !tbaa !3
  %29 = add nsw i32 %28, 1
  store i32 %29, ptr %6, align 4, !tbaa !3
  br label %8, !llvm.loop !63

30:                                               ; preds = %8
  store i32 -1, ptr %3, align 4
  store i32 1, ptr %7, align 4
  br label %31

31:                                               ; preds = %30, %24
  call void @llvm.lifetime.end.p0(i64 4, ptr %6) #9
  %32 = load i32, ptr %3, align 4
  ret i32 %32
}

; Function Attrs: nounwind uwtable
define void @populateAigPointerUnitGF(ptr noundef %0, ptr noundef %1, ptr noundef %2, ptr noundef %3) #0 {
  %5 = alloca ptr, align 8
  %6 = alloca ptr, align 8
  %7 = alloca ptr, align 8
  %8 = alloca ptr, align 8
  %9 = alloca ptr, align 8
  %10 = alloca ptr, align 8
  %11 = alloca i32, align 4
  %12 = alloca i32, align 4
  store ptr %0, ptr %5, align 8, !tbaa !59
  store ptr %1, ptr %6, align 8, !tbaa !7
  store ptr %2, ptr %7, align 8, !tbaa !48
  store ptr %3, ptr %8, align 8, !tbaa !61
  call void @llvm.lifetime.start.p0(i64 8, ptr %9) #9
  call void @llvm.lifetime.start.p0(i64 8, ptr %10) #9
  call void @llvm.lifetime.start.p0(i64 4, ptr %11) #9
  %13 = load ptr, ptr %6, align 8, !tbaa !7
  %14 = getelementptr inbounds nuw %struct.ltlNode_t, ptr %13, i32 0, i32 0
  %15 = load i32, ptr %14, align 8, !tbaa !10
  switch i32 %15, label %96 [
    i32 0, label %16
    i32 1, label %16
    i32 3, label %16
    i32 2, label %29
    i32 4, label %36
    i32 8, label %95
  ]

16:                                               ; preds = %4, %4, %4
  %17 = load ptr, ptr %5, align 8, !tbaa !59
  %18 = load ptr, ptr %6, align 8, !tbaa !7
  %19 = getelementptr inbounds nuw %struct.ltlNode_t, ptr %18, i32 0, i32 3
  %20 = load ptr, ptr %19, align 8, !tbaa !16
  %21 = load ptr, ptr %7, align 8, !tbaa !48
  %22 = load ptr, ptr %8, align 8, !tbaa !61
  call void @populateAigPointerUnitGF(ptr noundef %17, ptr noundef %20, ptr noundef %21, ptr noundef %22)
  %23 = load ptr, ptr %5, align 8, !tbaa !59
  %24 = load ptr, ptr %6, align 8, !tbaa !7
  %25 = getelementptr inbounds nuw %struct.ltlNode_t, ptr %24, i32 0, i32 4
  %26 = load ptr, ptr %25, align 8, !tbaa !17
  %27 = load ptr, ptr %7, align 8, !tbaa !48
  %28 = load ptr, ptr %8, align 8, !tbaa !61
  call void @populateAigPointerUnitGF(ptr noundef %23, ptr noundef %26, ptr noundef %27, ptr noundef %28)
  store i32 1, ptr %12, align 4
  br label %98

29:                                               ; preds = %4
  %30 = load ptr, ptr %5, align 8, !tbaa !59
  %31 = load ptr, ptr %6, align 8, !tbaa !7
  %32 = getelementptr inbounds nuw %struct.ltlNode_t, ptr %31, i32 0, i32 3
  %33 = load ptr, ptr %32, align 8, !tbaa !16
  %34 = load ptr, ptr %7, align 8, !tbaa !48
  %35 = load ptr, ptr %8, align 8, !tbaa !61
  call void @populateAigPointerUnitGF(ptr noundef %30, ptr noundef %33, ptr noundef %34, ptr noundef %35)
  store i32 1, ptr %12, align 4
  br label %98

36:                                               ; preds = %4
  %37 = load ptr, ptr %6, align 8, !tbaa !7
  %38 = getelementptr inbounds nuw %struct.ltlNode_t, ptr %37, i32 0, i32 3
  %39 = load ptr, ptr %38, align 8, !tbaa !16
  store ptr %39, ptr %9, align 8, !tbaa !7
  %40 = load ptr, ptr %9, align 8, !tbaa !7
  %41 = getelementptr inbounds nuw %struct.ltlNode_t, ptr %40, i32 0, i32 3
  %42 = load ptr, ptr %41, align 8, !tbaa !16
  store ptr %42, ptr %10, align 8, !tbaa !7
  %43 = load ptr, ptr %10, align 8, !tbaa !7
  %44 = getelementptr inbounds nuw %struct.ltlNode_t, ptr %43, i32 0, i32 0
  %45 = load i32, ptr %44, align 8, !tbaa !10
  %46 = icmp eq i32 %45, 8
  br i1 %46, label %47, label %69

47:                                               ; preds = %36
  %48 = load ptr, ptr %7, align 8, !tbaa !48
  %49 = load ptr, ptr %10, align 8, !tbaa !7
  %50 = getelementptr inbounds nuw %struct.ltlNode_t, ptr %49, i32 0, i32 2
  %51 = load ptr, ptr %50, align 8, !tbaa !14
  %52 = call i32 @Vec_PtrFind(ptr noundef %48, ptr noundef %51)
  store i32 %52, ptr %11, align 4, !tbaa !3
  %53 = load i32, ptr %11, align 4, !tbaa !3
  %54 = icmp eq i32 %53, -1
  br i1 %54, label %55, label %65

55:                                               ; preds = %47
  %56 = load ptr, ptr %7, align 8, !tbaa !48
  %57 = load ptr, ptr %10, align 8, !tbaa !7
  %58 = getelementptr inbounds nuw %struct.ltlNode_t, ptr %57, i32 0, i32 2
  %59 = load ptr, ptr %58, align 8, !tbaa !14
  call void @Vec_PtrPush(ptr noundef %56, ptr noundef %59)
  %60 = load ptr, ptr %7, align 8, !tbaa !48
  %61 = load ptr, ptr %10, align 8, !tbaa !7
  %62 = getelementptr inbounds nuw %struct.ltlNode_t, ptr %61, i32 0, i32 2
  %63 = load ptr, ptr %62, align 8, !tbaa !14
  %64 = call i32 @Vec_PtrFind(ptr noundef %60, ptr noundef %63)
  store i32 %64, ptr %11, align 4, !tbaa !3
  br label %65

65:                                               ; preds = %55, %47
  %66 = load ptr, ptr %8, align 8, !tbaa !61
  %67 = load i32, ptr %11, align 4, !tbaa !3
  %68 = load ptr, ptr %6, align 8, !tbaa !7
  call void @Vec_VecPush(ptr noundef %66, i32 noundef %67, ptr noundef %68)
  br label %94

69:                                               ; preds = %36
  %70 = load ptr, ptr %5, align 8, !tbaa !59
  %71 = load ptr, ptr %10, align 8, !tbaa !7
  %72 = call ptr @buildLogicFromLTLNode_combinationalOnly(ptr noundef %70, ptr noundef %71)
  %73 = load ptr, ptr %7, align 8, !tbaa !48
  %74 = load ptr, ptr %10, align 8, !tbaa !7
  %75 = getelementptr inbounds nuw %struct.ltlNode_t, ptr %74, i32 0, i32 2
  %76 = load ptr, ptr %75, align 8, !tbaa !14
  %77 = call i32 @Vec_PtrFind(ptr noundef %73, ptr noundef %76)
  store i32 %77, ptr %11, align 4, !tbaa !3
  %78 = load i32, ptr %11, align 4, !tbaa !3
  %79 = icmp eq i32 %78, -1
  br i1 %79, label %80, label %90

80:                                               ; preds = %69
  %81 = load ptr, ptr %7, align 8, !tbaa !48
  %82 = load ptr, ptr %10, align 8, !tbaa !7
  %83 = getelementptr inbounds nuw %struct.ltlNode_t, ptr %82, i32 0, i32 2
  %84 = load ptr, ptr %83, align 8, !tbaa !14
  call void @Vec_PtrPush(ptr noundef %81, ptr noundef %84)
  %85 = load ptr, ptr %7, align 8, !tbaa !48
  %86 = load ptr, ptr %10, align 8, !tbaa !7
  %87 = getelementptr inbounds nuw %struct.ltlNode_t, ptr %86, i32 0, i32 2
  %88 = load ptr, ptr %87, align 8, !tbaa !14
  %89 = call i32 @Vec_PtrFind(ptr noundef %85, ptr noundef %88)
  store i32 %89, ptr %11, align 4, !tbaa !3
  br label %90

90:                                               ; preds = %80, %69
  %91 = load ptr, ptr %8, align 8, !tbaa !61
  %92 = load i32, ptr %11, align 4, !tbaa !3
  %93 = load ptr, ptr %6, align 8, !tbaa !7
  call void @Vec_VecPush(ptr noundef %91, i32 noundef %92, ptr noundef %93)
  br label %94

94:                                               ; preds = %90, %65
  store i32 1, ptr %12, align 4
  br label %98

95:                                               ; preds = %4
  store i32 1, ptr %12, align 4
  br label %98

96:                                               ; preds = %4
  %97 = call i32 (ptr, ...) @printf(ptr noundef @.str.16)
  call void @exit(i32 noundef 0) #12
  unreachable

98:                                               ; preds = %95, %94, %29, %16
  call void @llvm.lifetime.end.p0(i64 4, ptr %11) #9
  call void @llvm.lifetime.end.p0(i64 8, ptr %10) #9
  call void @llvm.lifetime.end.p0(i64 8, ptr %9) #9
  ret void
}