; Function Attrs: nounwind uwtable
define void @populateAigPointerUnitGF(ptr noundef %0, ptr noundef %1, ptr noundef captures(none) %2, ptr noundef captures(none) %3) local_unnamed_addr #3 {
  br label %tailrecurse

tailrecurse:                                      ; preds = %tailrecurse.backedge, %4
  %.tr72 = phi ptr [ %1, %4 ], [ %.tr72.be, %tailrecurse.backedge ]
  %5 = load i32, ptr %.tr72, align 8, !tbaa !3
  switch i32 %5, label %124 [
    i32 0, label %6
    i32 1, label %6
    i32 3, label %6
    i32 2, label %tailrecurse.backedge
    i32 4, label %10
    i32 8, label %.loopexit
  ]

6:                                                ; preds = %tailrecurse, %tailrecurse, %tailrecurse
  %7 = getelementptr inbounds nuw i8, ptr %.tr72, i64 24
  %8 = load ptr, ptr %7, align 8, !tbaa !46
  tail call void @populateAigPointerUnitGF(ptr noundef %0, ptr noundef %8, ptr noundef %2, ptr noundef %3)
  br label %tailrecurse.backedge

tailrecurse.backedge:                             ; preds = %tailrecurse, %6
  %.sink = phi i64 [ 32, %6 ], [ 24, %tailrecurse ]
  %9 = getelementptr inbounds nuw i8, ptr %.tr72, i64 %.sink
  %.tr72.be = load ptr, ptr %9, align 8, !tbaa !50
  br label %tailrecurse

10:                                               ; preds = %tailrecurse
  %11 = getelementptr inbounds nuw i8, ptr %.tr72, i64 24
  %12 = load ptr, ptr %11, align 8, !tbaa !46
  %13 = getelementptr inbounds nuw i8, ptr %12, i64 24
  %14 = load ptr, ptr %13, align 8, !tbaa !46
  %15 = load i32, ptr %14, align 8, !tbaa !3
  %16 = icmp eq i32 %15, 8
  br i1 %16, label %17, label %70

17:                                               ; preds = %10
  %18 = getelementptr inbounds nuw i8, ptr %14, i64 16
  %19 = load ptr, ptr %18, align 8, !tbaa !51
  %20 = getelementptr inbounds nuw i8, ptr %2, i64 4
  %21 = load i32, ptr %20, align 4, !tbaa !38
  %22 = icmp sgt i32 %21, 0
  br i1 %22, label %.lr.ph.i, label %Vec_PtrFind.exit.thread

.lr.ph.i:                                         ; preds = %17
  %23 = getelementptr inbounds nuw i8, ptr %2, i64 8
  %24 = load ptr, ptr %23, align 8, !tbaa !27
  %wide.trip.count.i = zext nneg i32 %21 to i64
  br label %25

25:                                               ; preds = %29, %.lr.ph.i
  %indvars.iv.i = phi i64 [ 0, %.lr.ph.i ], [ %indvars.iv.next.i, %29 ]
  %26 = getelementptr inbounds nuw ptr, ptr %24, i64 %indvars.iv.i
  %27 = load ptr, ptr %26, align 8, !tbaa !40
  %28 = icmp eq ptr %27, %19
  br i1 %28, label %Vec_PtrFind.exit, label %29

29:                                               ; preds = %25
  %indvars.iv.next.i = add nuw nsw i64 %indvars.iv.i, 1
  %exitcond.not.i = icmp eq i64 %indvars.iv.next.i, %wide.trip.count.i
  br i1 %exitcond.not.i, label %Vec_PtrFind.exit.thread, label %25, !llvm.loop !52

Vec_PtrFind.exit:                                 ; preds = %25
  %30 = trunc nuw nsw i64 %indvars.iv.i to i32
  br label %.loopexit.sink.split

Vec_PtrFind.exit.thread:                          ; preds = %29, %17
  %31 = load i32, ptr %2, align 8, !tbaa !39
  %32 = icmp eq i32 %21, %31
  br i1 %32, label %33, label %.Vec_PtrGrow.exit11_crit_edge.i

.Vec_PtrGrow.exit11_crit_edge.i:                  ; preds = %Vec_PtrFind.exit.thread
  %.phi.trans.insert.i = getelementptr inbounds nuw i8, ptr %2, i64 8
  %.pre.i = load ptr, ptr %.phi.trans.insert.i, align 8, !tbaa !27
  br label %Vec_PtrPush.exit

33:                                               ; preds = %Vec_PtrFind.exit.thread
  %34 = icmp slt i32 %21, 16
  br i1 %34, label %35, label %43

35:                                               ; preds = %33
  %36 = getelementptr inbounds nuw i8, ptr %2, i64 8
  %37 = load ptr, ptr %36, align 8, !tbaa !27
  %.not9.i.i = icmp eq ptr %37, null
  br i1 %.not9.i.i, label %40, label %38

38:                                               ; preds = %35
  %39 = tail call dereferenceable_or_null(128) ptr @realloc(ptr noundef nonnull %37, i64 noundef 128) #25
  br label %Vec_PtrGrow.exit.i

40:                                               ; preds = %35
  %41 = tail call noalias dereferenceable_or_null(128) ptr @malloc(i64 noundef 128) #22
  br label %Vec_PtrGrow.exit.i

Vec_PtrGrow.exit.i:                               ; preds = %40, %38
  %42 = phi ptr [ %39, %38 ], [ %41, %40 ]
  store ptr %42, ptr %36, align 8, !tbaa !27
  store i32 16, ptr %2, align 8, !tbaa !39
  br label %Vec_PtrPush.exit

43:                                               ; preds = %33
  %44 = shl nuw nsw i32 %21, 1
  %45 = getelementptr inbounds nuw i8, ptr %2, i64 8
  %46 = load ptr, ptr %45, align 8, !tbaa !27
  %.not9.i10.i = icmp eq ptr %46, null
  %47 = zext nneg i32 %44 to i64
  %48 = shl nuw nsw i64 %47, 3
  br i1 %.not9.i10.i, label %51, label %49

49:                                               ; preds = %43
  %50 = tail call ptr @realloc(ptr noundef nonnull %46, i64 noundef %48) #25
  br label %53

51:                                               ; preds = %43
  %52 = tail call noalias ptr @malloc(i64 noundef %48) #22
  br label %53

53:                                               ; preds = %51, %49
  %54 = phi ptr [ %50, %49 ], [ %52, %51 ]
  store ptr %54, ptr %45, align 8, !tbaa !27
  store i32 %44, ptr %2, align 8, !tbaa !39
  br label %Vec_PtrPush.exit

Vec_PtrPush.exit:                                 ; preds = %.Vec_PtrGrow.exit11_crit_edge.i, %Vec_PtrGrow.exit.i, %53
  %55 = phi ptr [ %.pre.i, %.Vec_PtrGrow.exit11_crit_edge.i ], [ %54, %53 ], [ %42, %Vec_PtrGrow.exit.i ]
  %56 = load i32, ptr %20, align 4, !tbaa !38
  %57 = add nsw i32 %56, 1
  store i32 %57, ptr %20, align 4, !tbaa !38
  %58 = sext i32 %56 to i64
  %59 = getelementptr inbounds ptr, ptr %55, i64 %58
  store ptr %19, ptr %59, align 8, !tbaa !40
  %60 = load ptr, ptr %18, align 8, !tbaa !51
  %61 = icmp sgt i32 %56, -1
  br i1 %61, label %.lr.ph.i40, label %.loopexit.sink.split

.lr.ph.i40:                                       ; preds = %Vec_PtrPush.exit
  %62 = getelementptr inbounds nuw i8, ptr %2, i64 8
  %63 = load ptr, ptr %62, align 8, !tbaa !27
  %wide.trip.count.i41 = zext nneg i32 %57 to i64
  br label %64

64:                                               ; preds = %68, %.lr.ph.i40
  %indvars.iv.i42 = phi i64 [ 0, %.lr.ph.i40 ], [ %indvars.iv.next.i43, %68 ]
  %65 = getelementptr inbounds nuw ptr, ptr %63, i64 %indvars.iv.i42
  %66 = load ptr, ptr %65, align 8, !tbaa !40
  %67 = icmp eq ptr %66, %60
  br i1 %67, label %._crit_edge.loopexit.split.loop.exit12.i45, label %68

68:                                               ; preds = %64
  %indvars.iv.next.i43 = add nuw nsw i64 %indvars.iv.i42, 1
  %exitcond.not.i44 = icmp eq i64 %indvars.iv.next.i43, %wide.trip.count.i41
  br i1 %exitcond.not.i44, label %.loopexit.sink.split, label %64, !llvm.loop !52

._crit_edge.loopexit.split.loop.exit12.i45:       ; preds = %64
  %69 = trunc nuw nsw i64 %indvars.iv.i42 to i32
  br label %.loopexit.sink.split

70:                                               ; preds = %10
  %71 = tail call ptr @buildLogicFromLTLNode_combinationalOnly(ptr noundef %0, ptr noundef nonnull %14)
  %72 = getelementptr inbounds nuw i8, ptr %14, i64 16
  %73 = load ptr, ptr %72, align 8, !tbaa !51
  %74 = getelementptr inbounds nuw i8, ptr %2, i64 4
  %75 = load i32, ptr %74, align 4, !tbaa !38
  %76 = icmp sgt i32 %75, 0
  br i1 %76, label %.lr.ph.i48, label %Vec_PtrFind.exit54.thread

.lr.ph.i48:                                       ; preds = %70
  %77 = getelementptr inbounds nuw i8, ptr %2, i64 8
  %78 = load ptr, ptr %77, align 8, !tbaa !27
  %wide.trip.count.i49 = zext nneg i32 %75 to i64
  br label %79

79:                                               ; preds = %83, %.lr.ph.i48
  %indvars.iv.i50 = phi i64 [ 0, %.lr.ph.i48 ], [ %indvars.iv.next.i51, %83 ]
  %80 = getelementptr inbounds nuw ptr, ptr %78, i64 %indvars.iv.i50
  %81 = load ptr, ptr %80, align 8, !tbaa !40
  %82 = icmp eq ptr %81, %73
  br i1 %82, label %Vec_PtrFind.exit54, label %83

83:                                               ; preds = %79
  %indvars.iv.next.i51 = add nuw nsw i64 %indvars.iv.i50, 1
  %exitcond.not.i52 = icmp eq i64 %indvars.iv.next.i51, %wide.trip.count.i49
  br i1 %exitcond.not.i52, label %Vec_PtrFind.exit54.thread, label %79, !llvm.loop !52

Vec_PtrFind.exit54:                               ; preds = %79
  %84 = trunc nuw nsw i64 %indvars.iv.i50 to i32
  br label %.loopexit.sink.split

Vec_PtrFind.exit54.thread:                        ; preds = %83, %70
  %85 = load i32, ptr %2, align 8, !tbaa !39
  %86 = icmp eq i32 %75, %85
  br i1 %86, label %87, label %.Vec_PtrGrow.exit11_crit_edge.i55

.Vec_PtrGrow.exit11_crit_edge.i55:                ; preds = %Vec_PtrFind.exit54.thread
  %.phi.trans.insert.i56 = getelementptr inbounds nuw i8, ptr %2, i64 8
  %.pre.i57 = load ptr, ptr %.phi.trans.insert.i56, align 8, !tbaa !27
  br label %Vec_PtrPush.exit61

87:                                               ; preds = %Vec_PtrFind.exit54.thread
  %88 = icmp slt i32 %75, 16
  br i1 %88, label %89, label %97

89:                                               ; preds = %87
  %90 = getelementptr inbounds nuw i8, ptr %2, i64 8
  %91 = load ptr, ptr %90, align 8, !tbaa !27
  %.not9.i.i59 = icmp eq ptr %91, null
  br i1 %.not9.i.i59, label %94, label %92

92:                                               ; preds = %89
  %93 = tail call dereferenceable_or_null(128) ptr @realloc(ptr noundef nonnull %91, i64 noundef 128) #25
  br label %Vec_PtrGrow.exit.i60

94:                                               ; preds = %89
  %95 = tail call noalias dereferenceable_or_null(128) ptr @malloc(i64 noundef 128) #22
  br label %Vec_PtrGrow.exit.i60

Vec_PtrGrow.exit.i60:                             ; preds = %94, %92
  %96 = phi ptr [ %93, %92 ], [ %95, %94 ]
  store ptr %96, ptr %90, align 8, !tbaa !27
  store i32 16, ptr %2, align 8, !tbaa !39
  br label %Vec_PtrPush.exit61

97:                                               ; preds = %87
  %98 = shl nuw nsw i32 %75, 1
  %99 = getelementptr inbounds nuw i8, ptr %2, i64 8
  %100 = load ptr, ptr %99, align 8, !tbaa !27
  %.not9.i10.i58 = icmp eq ptr %100, null
  %101 = zext nneg i32 %98 to i64
  %102 = shl nuw nsw i64 %101, 3
  br i1 %.not9.i10.i58, label %105, label %103

103:                                              ; preds = %97
  %104 = tail call ptr @realloc(ptr noundef nonnull %100, i64 noundef %102) #25
  br label %107

105:                                              ; preds = %97
  %106 = tail call noalias ptr @malloc(i64 noundef %102) #22
  br label %107

107:                                              ; preds = %105, %103
  %108 = phi ptr [ %104, %103 ], [ %106, %105 ]
  store ptr %108, ptr %99, align 8, !tbaa !27
  store i32 %98, ptr %2, align 8, !tbaa !39
  br label %Vec_PtrPush.exit61

Vec_PtrPush.exit61:                               ; preds = %.Vec_PtrGrow.exit11_crit_edge.i55, %Vec_PtrGrow.exit.i60, %107
  %109 = phi ptr [ %.pre.i57, %.Vec_PtrGrow.exit11_crit_edge.i55 ], [ %108, %107 ], [ %96, %Vec_PtrGrow.exit.i60 ]
  %110 = load i32, ptr %74, align 4, !tbaa !38
  %111 = add nsw i32 %110, 1
  store i32 %111, ptr %74, align 4, !tbaa !38
  %112 = sext i32 %110 to i64
  %113 = getelementptr inbounds ptr, ptr %109, i64 %112
  store ptr %73, ptr %113, align 8, !tbaa !40
  %114 = load ptr, ptr %72, align 8, !tbaa !51
  %115 = icmp sgt i32 %110, -1
  br i1 %115, label %.lr.ph.i63, label %.loopexit.sink.split

.lr.ph.i63:                                       ; preds = %Vec_PtrPush.exit61
  %116 = getelementptr inbounds nuw i8, ptr %2, i64 8
  %117 = load ptr, ptr %116, align 8, !tbaa !27
  %wide.trip.count.i64 = zext nneg i32 %111 to i64
  br label %118

118:                                              ; preds = %122, %.lr.ph.i63
  %indvars.iv.i65 = phi i64 [ 0, %.lr.ph.i63 ], [ %indvars.iv.next.i66, %122 ]
  %119 = getelementptr inbounds nuw ptr, ptr %117, i64 %indvars.iv.i65
  %120 = load ptr, ptr %119, align 8, !tbaa !40
  %121 = icmp eq ptr %120, %114
  br i1 %121, label %._crit_edge.loopexit.split.loop.exit12.i68, label %122

122:                                              ; preds = %118
  %indvars.iv.next.i66 = add nuw nsw i64 %indvars.iv.i65, 1
  %exitcond.not.i67 = icmp eq i64 %indvars.iv.next.i66, %wide.trip.count.i64
  br i1 %exitcond.not.i67, label %.loopexit.sink.split, label %118, !llvm.loop !52

._crit_edge.loopexit.split.loop.exit12.i68:       ; preds = %118
  %123 = trunc nuw nsw i64 %indvars.iv.i65 to i32
  br label %.loopexit.sink.split

124:                                              ; preds = %tailrecurse
  %puts = tail call i32 @puts(ptr nonnull dereferenceable(1) @str.2)
  tail call void @exit(i32 noundef 0) #26
  unreachable

.loopexit.sink.split:                             ; preds = %122, %68, %Vec_PtrPush.exit61, %._crit_edge.loopexit.split.loop.exit12.i68, %Vec_PtrFind.exit54, %Vec_PtrPush.exit, %._crit_edge.loopexit.split.loop.exit12.i45, %Vec_PtrFind.exit
  %.0.sink = phi i32 [ %30, %Vec_PtrFind.exit ], [ -1, %Vec_PtrPush.exit ], [ %69, %._crit_edge.loopexit.split.loop.exit12.i45 ], [ %84, %Vec_PtrFind.exit54 ], [ -1, %Vec_PtrPush.exit61 ], [ %123, %._crit_edge.loopexit.split.loop.exit12.i68 ], [ -1, %68 ], [ -1, %122 ]
  tail call fastcc void @Vec_VecPush(ptr noundef %3, i32 noundef %.0.sink, ptr noundef nonnull %.tr72)
  br label %.loopexit

.loopexit:                                        ; preds = %tailrecurse, %.loopexit.sink.split
  ret void
}